target datalayout = "e-m:e-p270:32:32-p271:32:32-p272:64:64-i64:64-i128:128-f80:128-n8:16:32:64-S128"
target triple = "x86_64-pc-linux-gnu"

%struct.CodedBitstreamFragment = type { ptr, i64, i64, ptr, i32, i32, ptr }

; Function Attrs: nounwind uwtable
define internal i32 @cbs_mpeg2_split_fragment(ptr noundef %0, ptr noundef %1, i32 noundef %2) #0 {
  %4 = alloca i32, align 4
  %5 = alloca ptr, align 8
  %6 = alloca ptr, align 8
  %7 = alloca i32, align 4
  %8 = alloca ptr, align 8
  %9 = alloca i32, align 4
  %10 = alloca i32, align 4
  %11 = alloca i32, align 4
  %12 = alloca i32, align 4
  %13 = alloca ptr, align 8
  %14 = alloca i64, align 8
  store ptr %0, ptr %5, align 8, !tbaa !4
  store ptr %1, ptr %6, align 8, !tbaa !9
  store i32 %2, ptr %7, align 4, !tbaa !11
  call void @llvm.lifetime.start.p0(i64 8, ptr %8) #8
  call void @llvm.lifetime.start.p0(i64 4, ptr %9) #8
  store i32 -1, ptr %9, align 4, !tbaa !11
  call void @llvm.lifetime.start.p0(i64 4, ptr %10) #8
  %15 = load ptr, ptr %6, align 8, !tbaa !9
  %16 = getelementptr inbounds nuw %struct.CodedBitstreamFragment, ptr %15, i32 0, i32 0
  %17 = load ptr, ptr %16, align 8, !tbaa !13
  %18 = load ptr, ptr %6, align 8, !tbaa !9
  %19 = getelementptr inbounds nuw %struct.CodedBitstreamFragment, ptr %18, i32 0, i32 0
  %20 = load ptr, ptr %19, align 8, !tbaa !13
  %21 = load ptr, ptr %6, align 8, !tbaa !9
  %22 = getelementptr inbounds nuw %struct.CodedBitstreamFragment, ptr %21, i32 0, i32 1
  %23 = load i64, ptr %22, align 8, !tbaa !19
  %24 = getelementptr inbounds nuw i8, ptr %20, i64 %23
  %25 = call ptr @avpriv_find_start_code(ptr noundef %17, ptr noundef %24, ptr noundef %9)
  store ptr %25, ptr %8, align 8, !tbaa !20
  %26 = load i32, ptr %9, align 4, !tbaa !11
  %27 = lshr i32 %26, 8
  %28 = icmp ne i32 %27, 1
  br i1 %28, label %29, label %30

29:                                               ; preds = %3
  store i32 -1094995529, ptr %4, align 4
  store i32 1, ptr %11, align 4
  br label %83

30:                                               ; preds = %3
  br label %31

31:                                               ; preds = %78, %30
  call void @llvm.lifetime.start.p0(i64 4, ptr %12) #8
  %32 = load i32, ptr %9, align 4, !tbaa !11
  %33 = and i32 %32, 255
  store i32 %33, ptr %12, align 4, !tbaa !11
  call void @llvm.lifetime.start.p0(i64 8, ptr %13) #8
  call void @llvm.lifetime.start.p0(i64 8, ptr %14) #8
  store i32 -1, ptr %9, align 4, !tbaa !11
  %34 = load ptr, ptr %8, align 8, !tbaa !20
  %35 = getelementptr inbounds i8, ptr %34, i32 -1
  store ptr %35, ptr %8, align 8, !tbaa !20
  %36 = load ptr, ptr %6, align 8, !tbaa !9
  %37 = getelementptr inbounds nuw %struct.CodedBitstreamFragment, ptr %36, i32 0, i32 0
  %38 = load ptr, ptr %37, align 8, !tbaa !13
  %39 = load ptr, ptr %6, align 8, !tbaa !9
  %40 = getelementptr inbounds nuw %struct.CodedBitstreamFragment, ptr %39, i32 0, i32 1
  %41 = load i64, ptr %40, align 8, !tbaa !19
  %42 = getelementptr inbounds nuw i8, ptr %38, i64 %41
  %43 = call ptr @avpriv_find_start_code(ptr noundef %34, ptr noundef %42, ptr noundef %9)
  store ptr %43, ptr %13, align 8, !tbaa !20
  %44 = load i32, ptr %9, align 4, !tbaa !11
  %45 = lshr i32 %44, 8
  %46 = icmp eq i32 %45, 1
  br i1 %46, label %47, label %54

47:                                               ; preds = %31
  %48 = load ptr, ptr %13, align 8, !tbaa !20
  %49 = getelementptr inbounds i8, ptr %48, i64 -4
  %50 = load ptr, ptr %8, align 8, !tbaa !20
  %51 = ptrtoint ptr %49 to i64
  %52 = ptrtoint ptr %50 to i64
  %53 = sub i64 %51, %52
  store i64 %53, ptr %14, align 8, !tbaa !21
  br label %60

54:                                               ; preds = %31
  %55 = load ptr, ptr %13, align 8, !tbaa !20
  %56 = load ptr, ptr %8, align 8, !tbaa !20
  %57 = ptrtoint ptr %55 to i64
  %58 = ptrtoint ptr %56 to i64
  %59 = sub i64 %57, %58
  store i64 %59, ptr %14, align 8, !tbaa !21
  br label %60

60:                                               ; preds = %54, %47
  %61 = load ptr, ptr %6, align 8, !tbaa !9
  %62 = load i32, ptr %12, align 4, !tbaa !11
  %63 = load ptr, ptr %8, align 8, !tbaa !20
  %64 = load i64, ptr %14, align 8, !tbaa !21
  %65 = load ptr, ptr %6, align 8, !tbaa !9
  %66 = getelementptr inbounds nuw %struct.CodedBitstreamFragment, ptr %65, i32 0, i32 3
  %67 = load ptr, ptr %66, align 8, !tbaa !22
  %68 = call i32 @ff_cbs_append_unit_data(ptr noundef %61, i32 noundef %62, ptr noundef %63, i64 noundef %64, ptr noundef %67)
  store i32 %68, ptr %10, align 4, !tbaa !11
  %69 = load i32, ptr %10, align 4, !tbaa !11
  %70 = icmp slt i32 %69, 0
  br i1 %70, label %71, label %73

71:                                               ; preds = %60
  %72 = load i32, ptr %10, align 4, !tbaa !11
  store i32 %72, ptr %4, align 4
  store i32 1, ptr %11, align 4
  br label %75

73:                                               ; preds = %60
  %74 = load ptr, ptr %13, align 8, !tbaa !20
  store ptr %74, ptr %8, align 8, !tbaa !20
  store i32 0, ptr %11, align 4
  br label %75

75:                                               ; preds = %73, %71
  call void @llvm.lifetime.end.p0(i64 8, ptr %14) #8
  call void @llvm.lifetime.end.p0(i64 8, ptr %13) #8
  call void @llvm.lifetime.end.p0(i64 4, ptr %12) #8
  %76 = load i32, ptr %11, align 4
  switch i32 %76, label %83 [
    i32 0, label %77
  ]

77:                                               ; preds = %75
  br label %78

78:                                               ; preds = %77
  %79 = load i32, ptr %9, align 4, !tbaa !11
  %80 = lshr i32 %79, 8
  %81 = icmp eq i32 %80, 1
  br i1 %81, label %31, label %82, !llvm.loop !23

82:                                               ; preds = %78
  store i32 0, ptr %4, align 4
  store i32 1, ptr %11, align 4
  br label %83

83:                                               ; preds = %82, %75, %29
  call void @llvm.lifetime.end.p0(i64 4, ptr %10) #8
  call void @llvm.lifetime.end.p0(i64 4, ptr %9) #8
  call void @llvm.lifetime.end.p0(i64 8, ptr %8) #8
  %84 = load i32, ptr %4, align 4
  ret i32 %84
}