; Function Attrs: nounwind uwtable
define internal range(i32 -2147483648, 1) i32 @cbs_mpeg2_split_fragment(ptr readnone captures(none) %0, ptr noundef %1, i32 %2) #0 {
  %4 = alloca i32, align 4
  call void @llvm.lifetime.start.p0(i64 4, ptr nonnull %4) #7
  store i32 -1, ptr %4, align 4, !tbaa !4
  %5 = load ptr, ptr %1, align 8, !tbaa !8
  %6 = getelementptr inbounds nuw i8, ptr %1, i64 8
  %7 = load i64, ptr %6, align 8, !tbaa !15
  %8 = getelementptr inbounds nuw i8, ptr %5, i64 %7
  %9 = call ptr @avpriv_find_start_code(ptr noundef %5, ptr noundef %8, ptr noundef nonnull %4) #7
  %10 = load i32, ptr %4, align 4, !tbaa !4
  %.mask = and i32 %10, -256
  %.not = icmp eq i32 %.mask, 256
  br i1 %.not, label %.preheader, label %.loopexit

.preheader:                                       ; preds = %3
  %11 = getelementptr inbounds nuw i8, ptr %1, i64 24
  br label %12

12:                                               ; preds = %.preheader, %26
  %13 = phi i32 [ %27, %26 ], [ %10, %.preheader ]
  %.020 = phi ptr [ %19, %26 ], [ %9, %.preheader ]
  %14 = and i32 %13, 255
  store i32 -1, ptr %4, align 4, !tbaa !4
  %15 = getelementptr inbounds i8, ptr %.020, i64 -1
  %16 = load ptr, ptr %1, align 8, !tbaa !8
  %17 = load i64, ptr %6, align 8, !tbaa !15
  %18 = getelementptr inbounds nuw i8, ptr %16, i64 %17
  %19 = call ptr @avpriv_find_start_code(ptr noundef %.020, ptr noundef %18, ptr noundef nonnull %4) #7
  %20 = load i32, ptr %4, align 4, !tbaa !4
  %.mask24 = and i32 %20, -256
  %21 = icmp eq i32 %.mask24, 256
  %22 = ptrtoint ptr %15 to i64
  %.0.v.v.idx = select i1 %21, i64 -4, i64 0
  %.0.v.v = getelementptr inbounds i8, ptr %19, i64 %.0.v.v.idx
  %.0.v = ptrtoint ptr %.0.v.v to i64
  %.0 = sub i64 %.0.v, %22
  %23 = load ptr, ptr %11, align 8, !tbaa !16
  %24 = call i32 @ff_cbs_append_unit_data(ptr noundef nonnull %1, i32 noundef %14, ptr noundef nonnull %15, i64 noundef %.0, ptr noundef %23) #7
  %25 = icmp sgt i32 %24, -1
  br i1 %25, label %26, label %.loopexit

26:                                               ; preds = %12
  %27 = load i32, ptr %4, align 4, !tbaa !4
  %.mask25 = and i32 %27, -256
  %28 = icmp eq i32 %.mask25, 256
  br i1 %28, label %12, label %.loopexit, !llvm.loop !17

.loopexit:                                        ; preds = %26, %12, %3
  %.019 = phi i32 [ -1094995529, %3 ], [ 0, %26 ], [ %24, %12 ]
  call void @llvm.lifetime.end.p0(i64 4, ptr nonnull %4) #7
  ret i32 %.019
}